target datalayout = "e-m:e-p270:32:32-p271:32:32-p272:64:64-i64:64-i128:128-f80:128-n8:16:32:64-S128"
target triple = "x86_64-pc-linux-gnu"

%"class.llvm::SmallVectorImpl.6" = type { %"class.llvm::SmallVectorTemplateBase.7" }
%"class.llvm::SmallVectorTemplateBase.7" = type { %"class.llvm::SmallVectorTemplateCommon.8" }
%"class.llvm::SmallVectorTemplateCommon.8" = type { %"class.llvm::SmallVectorBase" }
%"class.llvm::SmallVectorBase" = type { ptr, i32, i32 }
%"class.llvm::DIBuilder" = type { ptr, ptr, ptr, ptr, ptr, ptr, ptr, %"class.llvm::SmallVector", %"class.llvm::SmallVector", %"class.llvm::SmallVector.0", %"class.llvm::SmallVector.5", %"class.llvm::SmallVector", %"class.llvm::MapVector", %"class.llvm::SmallVector", i8, [7 x i8], %"class.llvm::DenseMap.15" }
%"class.llvm::SmallVector.0" = type { %"class.llvm::SmallVectorImpl.1", %"struct.llvm::SmallVectorStorage.4" }
%"class.llvm::SmallVectorImpl.1" = type { %"class.llvm::SmallVectorTemplateBase.2" }
%"class.llvm::SmallVectorTemplateBase.2" = type { %"class.llvm::SmallVectorTemplateCommon.3" }
%"class.llvm::SmallVectorTemplateCommon.3" = type { %"class.llvm::SmallVectorBase" }
%"struct.llvm::SmallVectorStorage.4" = type { [32 x i8] }
%"class.llvm::SmallVector.5" = type { %"class.llvm::SmallVectorImpl.6", %"struct.llvm::SmallVectorStorage.9" }
%"struct.llvm::SmallVectorStorage.9" = type { [32 x i8] }
%"class.llvm::MapVector" = type { %"class.llvm::DenseMap", %"class.llvm::SmallVector.10" }
%"class.llvm::DenseMap" = type <{ ptr, i32, i32, i32, [4 x i8] }>
%"class.llvm::SmallVector.10" = type { %"class.llvm::SmallVectorImpl.11" }
%"class.llvm::SmallVectorImpl.11" = type { %"class.llvm::SmallVectorTemplateBase.12" }
%"class.llvm::SmallVectorTemplateBase.12" = type { %"class.llvm::SmallVectorTemplateCommon.13" }
%"class.llvm::SmallVectorTemplateCommon.13" = type { %"class.llvm::SmallVectorBase" }
%"class.llvm::SmallVector" = type { %"class.llvm::SmallVectorImpl", %"struct.llvm::SmallVectorStorage" }
%"class.llvm::SmallVectorImpl" = type { %"class.llvm::SmallVectorTemplateBase" }
%"class.llvm::SmallVectorTemplateBase" = type { %"class.llvm::SmallVectorTemplateCommon" }
%"class.llvm::SmallVectorTemplateCommon" = type { %"class.llvm::SmallVectorBase" }
%"struct.llvm::SmallVectorStorage" = type { [32 x i8] }
%"class.llvm::DenseMap.15" = type <{ ptr, i32, i32, i32, [4 x i8] }>
%"class.llvm::ilist_node_base" = type { %"class.llvm::ilist_detail::node_base_prevnext" }
%"class.llvm::ilist_detail::node_base_prevnext" = type { ptr, ptr }
%"class.llvm::TypedTrackingMDRef" = type { %"class.llvm::TrackingMDRef" }
%"class.llvm::TrackingMDRef" = type { ptr }
%"class.llvm::Metadata" = type { i8, i8, i16, i32 }
%"class.llvm::ilist_iterator_w_bits" = type <{ ptr, i8, i8, [6 x i8] }>
%"class.llvm::DebugLoc" = type { %"class.llvm::TypedTrackingMDRef" }
%"class.llvm::Value" = type { i8, i8, i16, i32, ptr, ptr }
%"class.llvm::ilist_node_impl.226" = type { %"class.llvm::ilist_node_base.227" }
%"class.llvm::ilist_node_base.227" = type { %"class.llvm::ilist_detail::node_base_prevnext.228", %"class.llvm::ilist_detail::node_base_parent.229" }
%"class.llvm::ilist_detail::node_base_prevnext.228" = type { ptr, ptr }
%"class.llvm::ilist_detail::node_base_parent.229" = type { ptr }
%"class.llvm::BasicBlock" = type { %"class.llvm::Value", %"class.llvm::ilist_node_with_parent.231", i8, i32, %"class.llvm::SymbolTableList.235", ptr }
%"class.llvm::ilist_node_with_parent.231" = type { %"class.llvm::ilist_node.232" }
%"class.llvm::ilist_node.232" = type { %"class.llvm::ilist_node_impl.233" }
%"class.llvm::ilist_node_impl.233" = type { %"class.llvm::ilist_node_base" }
%"class.llvm::SymbolTableList.235" = type { %"class.llvm::iplist_impl.236" }
%"class.llvm::iplist_impl.236" = type { %"class.llvm::simple_ilist.239" }
%"class.llvm::simple_ilist.239" = type { %"class.llvm::ilist_sentinel.242" }
%"class.llvm::ilist_sentinel.242" = type { %"class.llvm::ilist_node_impl.226" }
%"class.llvm::DbgVariableRecord" = type { %"class.llvm::DbgRecord.base", %"class.llvm::DebugValueUser", i8, %"class.llvm::DbgRecordParamRef", %"class.llvm::DbgRecordParamRef.246", %"class.llvm::DbgRecordParamRef.246" }
%"class.llvm::DbgRecord.base" = type <{ %"class.llvm::ilist_node.243", ptr, %"class.llvm::DebugLoc", i8 }>
%"class.llvm::ilist_node.243" = type { %"class.llvm::ilist_node_impl.244" }
%"class.llvm::ilist_node_impl.244" = type { %"class.llvm::ilist_node_base" }
%"class.llvm::DebugValueUser" = type { %"struct.std::array" }
%"struct.std::array" = type { [3 x ptr] }
%"class.llvm::DbgRecordParamRef" = type { %"class.llvm::TypedTrackingMDRef" }
%"class.llvm::DbgRecordParamRef.246" = type { %"class.llvm::TypedTrackingMDRef" }
%"struct.llvm::MDNode::Header" = type <{ i64, i32, [4 x i8] }>

; Function Attrs: mustprogress nounwind uwtable
define linkonce_odr hidden noundef nonnull align 8 dereferenceable(12) ptr @_ZNK4llvm6MDNode9getHeaderEv(ptr noundef nonnull align 8 dereferenceable(16) %0) #0 comdat align 2 {
  %2 = alloca ptr, align 8
  store ptr %0, ptr %2, align 8
  %3 = load ptr, ptr %2, align 8
  %4 = getelementptr inbounds %"struct.llvm::MDNode::Header", ptr %3, i64 -1
  ret ptr %4
}

; Function Attrs: mustprogress nounwind uwtable
define linkonce_odr hidden noundef i32 @_ZNK4llvm6MDNode16getNumUnresolvedEv(ptr noundef nonnull align 8 dereferenceable(16) %0) #0 comdat align 2 {
  %2 = alloca ptr, align 8
  store ptr %0, ptr %2, align 8
  %3 = load ptr, ptr %2, align 8
  %4 = call noundef nonnull align 8 dereferenceable(12) ptr @_ZNK4llvm6MDNode9getHeaderEv(ptr noundef nonnull align 8 dereferenceable(16) %3)
  %5 = getelementptr inbounds nuw %"struct.llvm::MDNode::Header", ptr %4, i32 0, i32 1
  %6 = load i32, ptr %5, align 8
  ret i32 %6
}

; Function Attrs: mustprogress nounwind uwtable
define linkonce_odr hidden noundef zeroext i1 @_ZNK4llvm6MDNode11isTemporaryEv(ptr noundef nonnull align 8 dereferenceable(16) %0) #0 comdat align 2 {
  %2 = alloca ptr, align 8
  store ptr %0, ptr %2, align 8
  %3 = load ptr, ptr %2, align 8
  %4 = getelementptr inbounds nuw %"class.llvm::Metadata", ptr %3, i32 0, i32 1
  %5 = load i8, ptr %4, align 1
  %6 = and i8 %5, 127
  %7 = zext i8 %6 to i32
  %8 = icmp eq i32 %7, 2
  ret i1 %8
}

; Function Attrs: mustprogress nounwind uwtable
define linkonce_odr hidden { ptr, i64 } @_ZN4llvm12simple_ilistINS_11InstructionEJNS_19ilist_iterator_bitsILb1EEENS_12ilist_parentINS_10BasicBlockEEEEE3endEv(ptr noundef nonnull align 8 dereferenceable(24) %0) #0 comdat align 2 {
  %2 = alloca %"class.llvm::ilist_iterator_w_bits", align 8
  %3 = alloca ptr, align 8
  store ptr %0, ptr %3, align 8
  %4 = load ptr, ptr %3, align 8
  %5 = getelementptr inbounds nuw %"class.llvm::simple_ilist.239", ptr %4, i32 0, i32 0
  call void @_ZN4llvm21ilist_iterator_w_bitsINS_12ilist_detail12node_optionsINS_11InstructionELb0ELb0EvLb1ENS_10BasicBlockEEELb0ELb0EEC2ERNS_15ilist_node_implIS5_EE(ptr noundef nonnull align 8 dereferenceable(10) %2, ptr noundef nonnull align 8 dereferenceable(24) %5)
  %6 = load { ptr, i64 }, ptr %2, align 8
  ret { ptr, i64 } %6
}

; Function Attrs: mustprogress nounwind uwtable
define linkonce_odr hidden void @_ZN4llvm21ilist_iterator_w_bitsINS_12ilist_detail12node_optionsINS_11InstructionELb0ELb0EvLb1ENS_10BasicBlockEEELb0ELb0EEC2ERNS_15ilist_node_implIS5_EE(ptr noundef nonnull align 8 dereferenceable(10) %0, ptr noundef nonnull align 8 dereferenceable(24) %1) unnamed_addr #0 comdat align 2 {
  %3 = alloca ptr, align 8
  %4 = alloca ptr, align 8
  store ptr %0, ptr %3, align 8
  store ptr %1, ptr %4, align 8
  %5 = load ptr, ptr %3, align 8
  %6 = getelementptr inbounds nuw %"class.llvm::ilist_iterator_w_bits", ptr %5, i32 0, i32 0
  %7 = load ptr, ptr %4, align 8
  store ptr %7, ptr %6, align 8
  %8 = getelementptr inbounds nuw %"class.llvm::ilist_iterator_w_bits", ptr %5, i32 0, i32 1
  store i8 0, ptr %8, align 8
  %9 = getelementptr inbounds nuw %"class.llvm::ilist_iterator_w_bits", ptr %5, i32 0, i32 2
  store i8 0, ptr %9, align 1
  ret void
}

; Function Attrs: mustprogress nounwind uwtable
define linkonce_odr hidden noundef zeroext i8 @_ZNK4llvm17DbgVariableRecord7getTypeEv(ptr noundef nonnull align 8 dereferenceable(96) %0) #0 comdat align 2 {
  %2 = alloca ptr, align 8
  store ptr %0, ptr %2, align 8
  %3 = load ptr, ptr %2, align 8
  %4 = getelementptr inbounds nuw %"class.llvm::DbgVariableRecord", ptr %3, i32 0, i32 2
  %5 = load i8, ptr %4, align 8
  ret i8 %5
}

; Function Attrs: mustprogress nounwind uwtable
define linkonce_odr hidden noundef zeroext i1 @_ZNK4llvm6MDNode10isResolvedEv(ptr noundef nonnull align 8 dereferenceable(16) %0) #0 comdat align 2 {
  %2 = alloca ptr, align 8
  store ptr %0, ptr %2, align 8
  %3 = load ptr, ptr %2, align 8
  %4 = call noundef zeroext i1 @_ZNK4llvm6MDNode11isTemporaryEv(ptr noundef nonnull align 8 dereferenceable(16) %3)
  br i1 %4, label %9, label %5

5:                                                ; preds = %1
  %6 = call noundef i32 @_ZNK4llvm6MDNode16getNumUnresolvedEv(ptr noundef nonnull align 8 dereferenceable(16) %3)
  %7 = icmp ne i32 %6, 0
  %8 = xor i1 %7, true
  br label %9

9:                                                ; preds = %5, %1
  %10 = phi i1 [ false, %1 ], [ %8, %5 ]
  ret i1 %10
}

; Function Attrs: mustprogress nounwind uwtable
define linkonce_odr hidden void @_ZNK4llvm21ilist_iterator_w_bitsINS_12ilist_detail12node_optionsINS_11InstructionELb0ELb0EvLb1ENS_10BasicBlockEEELb0ELb0EE10setHeadBitEb(ptr noundef nonnull align 8 dereferenceable(10) %0, i1 noundef zeroext %1) #0 comdat align 2 {
  %3 = alloca ptr, align 8
  %4 = alloca i8, align 1
  store ptr %0, ptr %3, align 8
  %5 = zext i1 %1 to i8
  store i8 %5, ptr %4, align 1
  %6 = load ptr, ptr %3, align 8
  %7 = load i8, ptr %4, align 1
  %8 = trunc i8 %7 to i1
  %9 = getelementptr inbounds nuw %"class.llvm::ilist_iterator_w_bits", ptr %6, i32 0, i32 1
  %10 = zext i1 %8 to i8
  store i8 %10, ptr %9, align 8
  ret void
}

; Function Attrs: mustprogress nounwind uwtable
define linkonce_odr hidden { ptr, i64 } @_ZN4llvm10BasicBlock3endEv(ptr noundef nonnull align 8 dereferenceable(80) %0) #0 comdat align 2 {
  %2 = alloca %"class.llvm::ilist_iterator_w_bits", align 8
  %3 = alloca ptr, align 8
  %4 = alloca { ptr, i64 }, align 8
  store ptr %0, ptr %3, align 8
  %5 = load ptr, ptr %3, align 8
  %6 = getelementptr inbounds nuw %"class.llvm::BasicBlock", ptr %5, i32 0, i32 4
  %7 = call { ptr, i64 } @_ZN4llvm12simple_ilistINS_11InstructionEJNS_19ilist_iterator_bitsILb1EEENS_12ilist_parentINS_10BasicBlockEEEEE3endEv(ptr noundef nonnull align 8 dereferenceable(24) %6)
  store { ptr, i64 } %7, ptr %4, align 8
  call void @llvm.memcpy.p0.p0.i64(ptr align 8 %2, ptr align 8 %4, i64 10, i1 false)
  %8 = load { ptr, i64 }, ptr %2, align 8
  ret { ptr, i64 } %8
}

; Function Attrs: mustprogress nounwind uwtable
define linkonce_odr hidden { ptr, i64 } @_ZN4llvm15ilist_node_implINS_12ilist_detail12node_optionsINS_11InstructionELb0ELb0EvLb1ENS_10BasicBlockEEEE11getIteratorEv(ptr noundef nonnull align 8 dereferenceable(24) %0) #0 comdat align 2 {
  %2 = alloca %"class.llvm::ilist_iterator_w_bits", align 8
  %3 = alloca ptr, align 8
  store ptr %0, ptr %3, align 8
  %4 = load ptr, ptr %3, align 8
  call void @_ZN4llvm21ilist_iterator_w_bitsINS_12ilist_detail12node_optionsINS_11InstructionELb0ELb0EvLb1ENS_10BasicBlockEEELb0ELb0EEC2ERNS_15ilist_node_implIS5_EE(ptr noundef nonnull align 8 dereferenceable(10) %2, ptr noundef nonnull align 8 dereferenceable(24) %4)
  %5 = load { ptr, i64 }, ptr %2, align 8
  ret { ptr, i64 } %5
}

; Function Attrs: mustprogress nounwind uwtable
define linkonce_odr hidden void @_ZN4llvm21ilist_iterator_w_bitsINS_12ilist_detail12node_optionsINS_11InstructionELb0ELb0EvLb1ENS_10BasicBlockEEELb0ELb0EEC2Ev(ptr noundef nonnull align 8 dereferenceable(10) %0) unnamed_addr #0 comdat align 2 {
  %2 = alloca ptr, align 8
  store ptr %0, ptr %2, align 8
  %3 = load ptr, ptr %2, align 8
  %4 = getelementptr inbounds nuw %"class.llvm::ilist_iterator_w_bits", ptr %3, i32 0, i32 0
  store ptr null, ptr %4, align 8
  %5 = getelementptr inbounds nuw %"class.llvm::ilist_iterator_w_bits", ptr %3, i32 0, i32 1
  store i8 0, ptr %5, align 8
  %6 = getelementptr inbounds nuw %"class.llvm::ilist_iterator_w_bits", ptr %3, i32 0, i32 2
  store i8 0, ptr %6, align 1
  ret void
}

; Function Attrs: mustprogress nounwind uwtable
define linkonce_odr hidden noundef ptr @_ZNK4llvm17DbgVariableRecord20getAddressExpressionEv(ptr noundef nonnull align 8 dereferenceable(96) %0) #0 comdat align 2 {
  %2 = alloca ptr, align 8
  store ptr %0, ptr %2, align 8
  %3 = load ptr, ptr %2, align 8
  %4 = getelementptr inbounds nuw %"class.llvm::DbgVariableRecord", ptr %3, i32 0, i32 5
  %5 = call noundef ptr @_ZNK4llvm17DbgRecordParamRefINS_12DIExpressionEE3getEv(ptr noundef nonnull align 8 dereferenceable(8) %4)
  ret ptr %5
}

; Function Attrs: mustprogress nounwind uwtable
define linkonce_odr hidden noundef zeroext i1 @_ZNK4llvm17DbgVariableRecord11isDbgAssignEv(ptr noundef nonnull align 8 dereferenceable(96) %0) #0 comdat align 2 {
  %2 = alloca ptr, align 8
  store ptr %0, ptr %2, align 8
  %3 = load ptr, ptr %2, align 8
  %4 = call noundef zeroext i8 @_ZNK4llvm17DbgVariableRecord7getTypeEv(ptr noundef nonnull align 8 dereferenceable(96) %3)
  %5 = icmp eq i8 %4, 2
  ret i1 %5
}

; Function Attrs: mustprogress nounwind uwtable
define linkonce_odr hidden noundef ptr @_ZNK4llvm17DbgVariableRecord13getExpressionEv(ptr noundef nonnull align 8 dereferenceable(96) %0) #0 comdat align 2 {
  %2 = alloca ptr, align 8
  store ptr %0, ptr %2, align 8
  %3 = load ptr, ptr %2, align 8
  %4 = getelementptr inbounds nuw %"class.llvm::DbgVariableRecord", ptr %3, i32 0, i32 4
  %5 = call noundef ptr @_ZNK4llvm17DbgRecordParamRefINS_12DIExpressionEE3getEv(ptr noundef nonnull align 8 dereferenceable(8) %4)
  ret ptr %5
}

; Function Attrs: mustprogress nounwind uwtable
define dso_local void @_ZN4llvm9DIBuilder17trackIfUnresolvedEPNS_6MDNodeE(ptr noundef nonnull align 8 dereferenceable(416) %0, ptr noundef %1) #0 align 2 {
  %3 = alloca ptr, align 8
  %4 = alloca ptr, align 8
  store ptr %0, ptr %3, align 8
  store ptr %1, ptr %4, align 8
  %5 = load ptr, ptr %3, align 8
  %6 = load ptr, ptr %4, align 8
  %7 = icmp ne ptr %6, null
  br i1 %7, label %9, label %8

8:                                                ; preds = %2
  br label %16

9:                                                ; preds = %2
  %10 = load ptr, ptr %4, align 8
  %11 = call noundef zeroext i1 @_ZNK4llvm6MDNode10isResolvedEv(ptr noundef nonnull align 8 dereferenceable(16) %10)
  br i1 %11, label %12, label %13

12:                                               ; preds = %9
  br label %16

13:                                               ; preds = %9
  %14 = getelementptr inbounds nuw %"class.llvm::DIBuilder", ptr %5, i32 0, i32 13
  %15 = call noundef nonnull align 8 dereferenceable(8) ptr @_ZN4llvm15SmallVectorImplINS_18TypedTrackingMDRefINS_6MDNodeEEEE12emplace_backIJRPS2_EEERS3_DpOT_(ptr noundef nonnull align 8 dereferenceable(16) %14, ptr noundef nonnull align 8 dereferenceable(8) %4)
  br label %16

16:                                               ; preds = %13, %12, %8
  ret void
}

; Function Attrs: mustprogress nounwind uwtable
define linkonce_odr hidden noundef ptr @_ZNK4llvm17DbgVariableRecord11getVariableEv(ptr noundef nonnull align 8 dereferenceable(96) %0) #0 comdat align 2 {
  %2 = alloca ptr, align 8
  store ptr %0, ptr %2, align 8
  %3 = load ptr, ptr %2, align 8
  %4 = getelementptr inbounds nuw %"class.llvm::DbgVariableRecord", ptr %3, i32 0, i32 3
  %5 = call noundef ptr @_ZNK4llvm17DbgRecordParamRefINS_15DILocalVariableEE3getEv(ptr noundef nonnull align 8 dereferenceable(8) %4)
  ret ptr %5
}

; Function Attrs: mustprogress nounwind uwtable
define dso_local void @_ZN4llvm9DIBuilder23insertDbgVariableRecordEPNS_17DbgVariableRecordEPNS_10BasicBlockEPNS_11InstructionEb(ptr noundef nonnull align 8 dereferenceable(416) %0, ptr noundef %1, ptr noundef %2, ptr noundef %3, i1 noundef zeroext %4) #0 align 2 {
  %6 = alloca ptr, align 8
  %7 = alloca ptr, align 8
  %8 = alloca ptr, align 8
  %9 = alloca ptr, align 8
  %10 = alloca i8, align 1
  %11 = alloca %"class.llvm::ilist_iterator_w_bits", align 8
  %12 = alloca %"class.llvm::ilist_iterator_w_bits", align 8
  %13 = alloca { ptr, i64 }, align 8
  %14 = alloca %"class.llvm::ilist_iterator_w_bits", align 8
  %15 = alloca { ptr, i64 }, align 8
  %16 = alloca %"class.llvm::ilist_iterator_w_bits", align 8
  store ptr %0, ptr %6, align 8
  store ptr %1, ptr %7, align 8
  store ptr %2, ptr %8, align 8
  store ptr %3, ptr %9, align 8
  %17 = zext i1 %4 to i8
  store i8 %17, ptr %10, align 1
  %18 = load ptr, ptr %6, align 8
  %19 = load ptr, ptr %7, align 8
  %20 = call noundef ptr @_ZNK4llvm17DbgVariableRecord11getVariableEv(ptr noundef nonnull align 8 dereferenceable(96) %19)
  call void @_ZN4llvm9DIBuilder17trackIfUnresolvedEPNS_6MDNodeE(ptr noundef nonnull align 8 dereferenceable(416) %18, ptr noundef %20)
  %21 = load ptr, ptr %7, align 8
  %22 = call noundef ptr @_ZNK4llvm17DbgVariableRecord13getExpressionEv(ptr noundef nonnull align 8 dereferenceable(96) %21)
  call void @_ZN4llvm9DIBuilder17trackIfUnresolvedEPNS_6MDNodeE(ptr noundef nonnull align 8 dereferenceable(416) %18, ptr noundef %22)
  %23 = load ptr, ptr %7, align 8
  %24 = call noundef zeroext i1 @_ZNK4llvm17DbgVariableRecord11isDbgAssignEv(ptr noundef nonnull align 8 dereferenceable(96) %23)
  br i1 %24, label %25, label %28

25:                                               ; preds = %5
  %26 = load ptr, ptr %7, align 8
  %27 = call noundef ptr @_ZNK4llvm17DbgVariableRecord20getAddressExpressionEv(ptr noundef nonnull align 8 dereferenceable(96) %26)
  call void @_ZN4llvm9DIBuilder17trackIfUnresolvedEPNS_6MDNodeE(ptr noundef nonnull align 8 dereferenceable(416) %18, ptr noundef %27)
  br label %28

28:                                               ; preds = %25, %5
  call void @_ZN4llvm21ilist_iterator_w_bitsINS_12ilist_detail12node_optionsINS_11InstructionELb0ELb0EvLb1ENS_10BasicBlockEEELb0ELb0EEC2Ev(ptr noundef nonnull align 8 dereferenceable(10) %11) #9
  %29 = load ptr, ptr %8, align 8
  %30 = icmp ne ptr %29, null
  br i1 %30, label %31, label %38

31:                                               ; preds = %28
  %32 = load ptr, ptr %9, align 8
  %33 = icmp ne ptr %32, null
  br i1 %33, label %34, label %38

34:                                               ; preds = %31
  %35 = load ptr, ptr %9, align 8
  %36 = getelementptr inbounds i8, ptr %35, i64 24
  %37 = call { ptr, i64 } @_ZN4llvm15ilist_node_implINS_12ilist_detail12node_optionsINS_11InstructionELb0ELb0EvLb1ENS_10BasicBlockEEEE11getIteratorEv(ptr noundef nonnull align 8 dereferenceable(24) %36)
  store { ptr, i64 } %37, ptr %13, align 8
  call void @llvm.memcpy.p0.p0.i64(ptr align 8 %12, ptr align 8 %13, i64 10, i1 false)
  call void @llvm.memcpy.p0.p0.i64(ptr align 8 %11, ptr align 8 %12, i64 10, i1 false)
  br label %45

38:                                               ; preds = %31, %28
  %39 = load ptr, ptr %8, align 8
  %40 = icmp ne ptr %39, null
  br i1 %40, label %41, label %44

41:                                               ; preds = %38
  %42 = load ptr, ptr %8, align 8
  %43 = call { ptr, i64 } @_ZN4llvm10BasicBlock3endEv(ptr noundef nonnull align 8 dereferenceable(80) %42)
  store { ptr, i64 } %43, ptr %15, align 8
  call void @llvm.memcpy.p0.p0.i64(ptr align 8 %14, ptr align 8 %15, i64 10, i1 false)
  call void @llvm.memcpy.p0.p0.i64(ptr align 8 %11, ptr align 8 %14, i64 10, i1 false)
  br label %44

44:                                               ; preds = %41, %38
  br label %45

45:                                               ; preds = %44, %34
  %46 = load i8, ptr %10, align 1
  %47 = trunc i8 %46 to i1
  call void @_ZNK4llvm21ilist_iterator_w_bitsINS_12ilist_detail12node_optionsINS_11InstructionELb0ELb0EvLb1ENS_10BasicBlockEEELb0ELb0EE10setHeadBitEb(ptr noundef nonnull align 8 dereferenceable(10) %11, i1 noundef zeroext %47)
  %48 = load ptr, ptr %8, align 8
  %49 = load ptr, ptr %7, align 8
  call void @llvm.memcpy.p0.p0.i64(ptr align 8 %16, ptr align 8 %11, i64 16, i1 false)
  %50 = getelementptr inbounds nuw { ptr, i64 }, ptr %16, i32 0, i32 0
  %51 = load ptr, ptr %50, align 8
  %52 = getelementptr inbounds nuw { ptr, i64 }, ptr %16, i32 0, i32 1
  %53 = load i64, ptr %52, align 8
  call void @_ZN4llvm10BasicBlock21insertDbgRecordBeforeEPNS_9DbgRecordENS_21ilist_iterator_w_bitsINS_12ilist_detail12node_optionsINS_11InstructionELb0ELb0EvLb1ES0_EELb0ELb0EEE(ptr noundef nonnull align 8 dereferenceable(80) %48, ptr noundef %49, ptr %51, i64 %53)
  ret void
}