; Function Attrs: mustprogress nounwind uwtable
define dso_local void @_ZN4llvm9DIBuilder23insertDbgVariableRecordEPNS_17DbgVariableRecordEPNS_10BasicBlockEPNS_11InstructionEb(ptr noundef nonnull align 8 dereferenceable(416) %0, ptr noundef %1, ptr noundef %2, ptr noundef %3, i1 noundef zeroext %4) local_unnamed_addr #0 align 2 {
  %6 = alloca ptr, align 8
  %7 = alloca ptr, align 8
  %8 = alloca ptr, align 8
  %9 = getelementptr inbounds nuw i8, ptr %1, i64 72
  %10 = tail call noundef ptr @_ZNK4llvm17DbgRecordParamRefINS_15DILocalVariableEE3getEv(ptr noundef nonnull align 8 dereferenceable(8) %9) #13
  call void @llvm.lifetime.start.p0(i64 8, ptr nonnull %8)
  store ptr %10, ptr %8, align 8
  %.not.i = icmp eq ptr %10, null
  br i1 %.not.i, label %_ZN4llvm9DIBuilder17trackIfUnresolvedEPNS_6MDNodeE.exit, label %11

11:                                               ; preds = %5
  %12 = getelementptr inbounds nuw i8, ptr %10, i64 1
  %13 = load i8, ptr %12, align 1
  %14 = and i8 %13, 127
  %15 = icmp eq i8 %14, 2
  br i1 %15, label %_ZNK4llvm6MDNode10isResolvedEv.exit.thread.i, label %_ZNK4llvm6MDNode10isResolvedEv.exit.i

_ZNK4llvm6MDNode10isResolvedEv.exit.i:            ; preds = %11
  %16 = getelementptr inbounds i8, ptr %10, i64 -8
  %17 = load i32, ptr %16, align 8
  %.not.i.i = icmp eq i32 %17, 0
  br i1 %.not.i.i, label %_ZN4llvm9DIBuilder17trackIfUnresolvedEPNS_6MDNodeE.exit, label %_ZNK4llvm6MDNode10isResolvedEv.exit.thread.i

_ZNK4llvm6MDNode10isResolvedEv.exit.thread.i:     ; preds = %_ZNK4llvm6MDNode10isResolvedEv.exit.i, %11
  %18 = getelementptr inbounds nuw i8, ptr %0, i64 336
  %19 = call noundef nonnull align 8 dereferenceable(8) ptr @_ZN4llvm15SmallVectorImplINS_18TypedTrackingMDRefINS_6MDNodeEEEE12emplace_backIJRPS2_EEERS3_DpOT_(ptr noundef nonnull align 8 dereferenceable(16) %18, ptr noundef nonnull align 8 dereferenceable(8) %8)
  br label %_ZN4llvm9DIBuilder17trackIfUnresolvedEPNS_6MDNodeE.exit

_ZN4llvm9DIBuilder17trackIfUnresolvedEPNS_6MDNodeE.exit: ; preds = %5, %_ZNK4llvm6MDNode10isResolvedEv.exit.i, %_ZNK4llvm6MDNode10isResolvedEv.exit.thread.i
  call void @llvm.lifetime.end.p0(i64 8, ptr nonnull %8)
  %20 = getelementptr inbounds nuw i8, ptr %1, i64 80
  %21 = call noundef ptr @_ZNK4llvm17DbgRecordParamRefINS_12DIExpressionEE3getEv(ptr noundef nonnull align 8 dereferenceable(8) %20) #13
  call void @llvm.lifetime.start.p0(i64 8, ptr nonnull %7)
  store ptr %21, ptr %7, align 8
  %.not.i24 = icmp eq ptr %21, null
  br i1 %.not.i24, label %_ZN4llvm9DIBuilder17trackIfUnresolvedEPNS_6MDNodeE.exit28, label %22

22:                                               ; preds = %_ZN4llvm9DIBuilder17trackIfUnresolvedEPNS_6MDNodeE.exit
  %23 = getelementptr inbounds nuw i8, ptr %21, i64 1
  %24 = load i8, ptr %23, align 1
  %25 = and i8 %24, 127
  %26 = icmp eq i8 %25, 2
  br i1 %26, label %_ZNK4llvm6MDNode10isResolvedEv.exit.thread.i27, label %_ZNK4llvm6MDNode10isResolvedEv.exit.i25

_ZNK4llvm6MDNode10isResolvedEv.exit.i25:          ; preds = %22
  %27 = getelementptr inbounds i8, ptr %21, i64 -8
  %28 = load i32, ptr %27, align 8
  %.not.i.i26 = icmp eq i32 %28, 0
  br i1 %.not.i.i26, label %_ZN4llvm9DIBuilder17trackIfUnresolvedEPNS_6MDNodeE.exit28, label %_ZNK4llvm6MDNode10isResolvedEv.exit.thread.i27

_ZNK4llvm6MDNode10isResolvedEv.exit.thread.i27:   ; preds = %_ZNK4llvm6MDNode10isResolvedEv.exit.i25, %22
  %29 = getelementptr inbounds nuw i8, ptr %0, i64 336
  %30 = call noundef nonnull align 8 dereferenceable(8) ptr @_ZN4llvm15SmallVectorImplINS_18TypedTrackingMDRefINS_6MDNodeEEEE12emplace_backIJRPS2_EEERS3_DpOT_(ptr noundef nonnull align 8 dereferenceable(16) %29, ptr noundef nonnull align 8 dereferenceable(8) %7)
  br label %_ZN4llvm9DIBuilder17trackIfUnresolvedEPNS_6MDNodeE.exit28

_ZN4llvm9DIBuilder17trackIfUnresolvedEPNS_6MDNodeE.exit28: ; preds = %_ZN4llvm9DIBuilder17trackIfUnresolvedEPNS_6MDNodeE.exit, %_ZNK4llvm6MDNode10isResolvedEv.exit.i25, %_ZNK4llvm6MDNode10isResolvedEv.exit.thread.i27
  call void @llvm.lifetime.end.p0(i64 8, ptr nonnull %7)
  %31 = getelementptr inbounds nuw i8, ptr %1, i64 64
  %32 = load i8, ptr %31, align 8
  %33 = icmp eq i8 %32, 2
  br i1 %33, label %34, label %46

34:                                               ; preds = %_ZN4llvm9DIBuilder17trackIfUnresolvedEPNS_6MDNodeE.exit28
  %35 = getelementptr inbounds nuw i8, ptr %1, i64 88
  %36 = call noundef ptr @_ZNK4llvm17DbgRecordParamRefINS_12DIExpressionEE3getEv(ptr noundef nonnull align 8 dereferenceable(8) %35) #13
  call void @llvm.lifetime.start.p0(i64 8, ptr nonnull %6)
  store ptr %36, ptr %6, align 8
  %.not.i29 = icmp eq ptr %36, null
  br i1 %.not.i29, label %_ZN4llvm9DIBuilder17trackIfUnresolvedEPNS_6MDNodeE.exit33, label %37

37:                                               ; preds = %34
  %38 = getelementptr inbounds nuw i8, ptr %36, i64 1
  %39 = load i8, ptr %38, align 1
  %40 = and i8 %39, 127
  %41 = icmp eq i8 %40, 2
  br i1 %41, label %_ZNK4llvm6MDNode10isResolvedEv.exit.thread.i32, label %_ZNK4llvm6MDNode10isResolvedEv.exit.i30

_ZNK4llvm6MDNode10isResolvedEv.exit.i30:          ; preds = %37
  %42 = getelementptr inbounds i8, ptr %36, i64 -8
  %43 = load i32, ptr %42, align 8
  %.not.i.i31 = icmp eq i32 %43, 0
  br i1 %.not.i.i31, label %_ZN4llvm9DIBuilder17trackIfUnresolvedEPNS_6MDNodeE.exit33, label %_ZNK4llvm6MDNode10isResolvedEv.exit.thread.i32

_ZNK4llvm6MDNode10isResolvedEv.exit.thread.i32:   ; preds = %_ZNK4llvm6MDNode10isResolvedEv.exit.i30, %37
  %44 = getelementptr inbounds nuw i8, ptr %0, i64 336
  %45 = call noundef nonnull align 8 dereferenceable(8) ptr @_ZN4llvm15SmallVectorImplINS_18TypedTrackingMDRefINS_6MDNodeEEEE12emplace_backIJRPS2_EEERS3_DpOT_(ptr noundef nonnull align 8 dereferenceable(16) %44, ptr noundef nonnull align 8 dereferenceable(8) %6)
  br label %_ZN4llvm9DIBuilder17trackIfUnresolvedEPNS_6MDNodeE.exit33

_ZN4llvm9DIBuilder17trackIfUnresolvedEPNS_6MDNodeE.exit33: ; preds = %34, %_ZNK4llvm6MDNode10isResolvedEv.exit.i30, %_ZNK4llvm6MDNode10isResolvedEv.exit.thread.i32
  call void @llvm.lifetime.end.p0(i64 8, ptr nonnull %6)
  br label %46

46:                                               ; preds = %_ZN4llvm9DIBuilder17trackIfUnresolvedEPNS_6MDNodeE.exit33, %_ZN4llvm9DIBuilder17trackIfUnresolvedEPNS_6MDNodeE.exit28
  %.not38 = icmp eq ptr %2, null
  %.not = icmp eq ptr %3, null
  %47 = getelementptr inbounds i8, ptr %3, i64 24
  %48 = getelementptr inbounds nuw i8, ptr %2, i64 48
  %spec.select = select i1 %.not, ptr %48, ptr %47
  %.sroa.0.0 = select i1 %.not38, ptr null, ptr %spec.select
  %.sroa.4.8.insert.ext = zext i1 %4 to i64
  call void @_ZN4llvm10BasicBlock21insertDbgRecordBeforeEPNS_9DbgRecordENS_21ilist_iterator_w_bitsINS_12ilist_detail12node_optionsINS_11InstructionELb0ELb0EvLb1ES0_EELb0ELb0EEE(ptr noundef nonnull align 8 dereferenceable(80) %2, ptr noundef nonnull %1, ptr %.sroa.0.0, i64 %.sroa.4.8.insert.ext) #13
  ret void
}